target datalayout = "e-m:e-p270:32:32-p271:32:32-p272:64:64-i64:64-i128:128-f80:128-n8:16:32:64-S128"
target triple = "x86_64-pc-linux-gnu"

%struct.quic_conn_id_st = type { i8, [20 x i8] }
%union.bio_addr_st = type { %struct.sockaddr_in6, [84 x i8] }
%struct.sockaddr_in6 = type { i16, i16, i32, %struct.in6_addr, i32 }
%struct.in6_addr = type { %union.anon }
%union.anon = type { [4 x i32] }
%struct.OSSL_TIME = type { i64 }
%struct.quic_channel_st = type { ptr, %struct.anon, %struct.anon.0, ptr, ptr, ptr, ptr, ptr, ptr, ptr, i64, %union.bio_addr_st, ptr, ptr, ptr, %struct.quic_txfc_st, %struct.quic_rxfc_st, [3 x %struct.quic_rxfc_st], %struct.quic_rxfc_st, %struct.quic_rxfc_st, %struct.quic_stream_map_st, %struct.ossl_statm_st, ptr, ptr, ptr, ptr, ptr, ptr, ptr, ptr, [3 x ptr], [3 x ptr], %struct.quic_conn_id_st, %struct.quic_conn_id_st, %struct.quic_conn_id_st, %struct.quic_conn_id_st, %struct.quic_conn_id_st, %struct.quic_conn_id_st, i64, i64, i64, i64, i64, i64, i64, i64, i64, i64, i8, i16, ptr, i64, i64, i64, i64, i64, i64, i64, i64, i64, i64, i64, i64, i64, %struct.quic_terminate_cause_st, %struct.OSSL_TIME, %struct.OSSL_TIME, %struct.OSSL_TIME, %struct.OSSL_TIME, %struct.OSSL_TIME, i64, i64, i64, ptr, ptr, i64, ptr }
%struct.anon = type { ptr, ptr }
%struct.anon.0 = type { ptr, ptr }
%struct.quic_txfc_st = type { ptr, i64, i64, i8 }
%struct.quic_rxfc_st = type { i64, i64, i64, i64, i64, i64, i64, %struct.OSSL_TIME, ptr, ptr, ptr, i8, i8, i8, i8 }
%struct.quic_stream_map_st = type { ptr, %struct.quic_stream_list_node_st, %struct.quic_stream_list_node_st, %struct.quic_stream_list_node_st, i64, i64, i64, i64, i64, ptr, ptr, ptr, ptr, ptr, i32 }
%struct.quic_stream_list_node_st = type { ptr, ptr }
%struct.ossl_statm_st = type { %struct.OSSL_TIME, %struct.OSSL_TIME, %struct.OSSL_TIME, %struct.OSSL_TIME, i8 }
%struct.quic_terminate_cause_st = type { i64, i64, ptr, i64, i8 }
%struct.qlog_trace_info_st = type { %struct.quic_conn_id_st, ptr, ptr, ptr, i32, ptr, ptr, i64, ptr }

; Function Attrs: nounwind uwtable
define internal ptr @ch_get_qlog(ptr noundef %0) #0 {
  %2 = alloca ptr, align 8
  %3 = alloca ptr, align 8
  %4 = alloca %struct.qlog_trace_info_st, align 8
  %5 = alloca i32, align 4
  store ptr %0, ptr %3, align 8, !tbaa !3
  call void @llvm.lifetime.start.p0(i64 88, ptr %4) #9
  call void @llvm.memset.p0.i64(ptr align 8 %4, i8 0, i64 88, i1 false)
  %6 = load ptr, ptr %3, align 8, !tbaa !3
  %7 = getelementptr inbounds nuw %struct.quic_channel_st, ptr %6, i32 0, i32 7
  %8 = load ptr, ptr %7, align 8, !tbaa !171
  %9 = icmp ne ptr %8, null
  br i1 %9, label %10, label %14

10:                                               ; preds = %1
  %11 = load ptr, ptr %3, align 8, !tbaa !3
  %12 = getelementptr inbounds nuw %struct.quic_channel_st, ptr %11, i32 0, i32 7
  %13 = load ptr, ptr %12, align 8, !tbaa !171
  store ptr %13, ptr %2, align 8
  store i32 1, ptr %5, align 4
  br label %73

14:                                               ; preds = %1
  %15 = load ptr, ptr %3, align 8, !tbaa !3
  %16 = getelementptr inbounds nuw %struct.quic_channel_st, ptr %15, i32 0, i32 72
  %17 = load i64, ptr %16, align 8
  %18 = lshr i64 %17, 41
  %19 = and i64 %18, 1
  %20 = trunc i64 %19 to i32
  %21 = icmp ne i32 %20, 0
  br i1 %21, label %23, label %22

22:                                               ; preds = %14
  store ptr null, ptr %2, align 8
  store i32 1, ptr %5, align 4
  br label %73

23:                                               ; preds = %14
  %24 = load ptr, ptr %3, align 8, !tbaa !3
  %25 = getelementptr inbounds nuw %struct.quic_channel_st, ptr %24, i32 0, i32 72
  %26 = load i64, ptr %25, align 8
  %27 = lshr i64 %26, 25
  %28 = and i64 %27, 1
  %29 = trunc i64 %28 to i32
  %30 = icmp ne i32 %29, 0
  br i1 %30, label %31, label %39

31:                                               ; preds = %23
  %32 = load ptr, ptr %3, align 8, !tbaa !3
  %33 = getelementptr inbounds nuw %struct.quic_channel_st, ptr %32, i32 0, i32 32
  %34 = getelementptr inbounds nuw %struct.quic_conn_id_st, ptr %33, i32 0, i32 0
  %35 = load i8, ptr %34, align 8, !tbaa !219
  %36 = zext i8 %35 to i32
  %37 = icmp eq i32 %36, 0
  br i1 %37, label %38, label %39

38:                                               ; preds = %31
  store ptr null, ptr %2, align 8
  store i32 1, ptr %5, align 4
  br label %73

39:                                               ; preds = %31, %23
  %40 = getelementptr inbounds nuw %struct.qlog_trace_info_st, ptr %4, i32 0, i32 0
  %41 = load ptr, ptr %3, align 8, !tbaa !3
  %42 = getelementptr inbounds nuw %struct.quic_channel_st, ptr %41, i32 0, i32 32
  call void @llvm.memcpy.p0.p0.i64(ptr align 8 %40, ptr align 8 %42, i64 21, i1 false), !tbaa.struct !88
  %43 = load ptr, ptr %3, align 8, !tbaa !3
  %44 = getelementptr inbounds nuw %struct.quic_channel_st, ptr %43, i32 0, i32 76
  %45 = load ptr, ptr %44, align 8, !tbaa !161
  %46 = getelementptr inbounds nuw %struct.qlog_trace_info_st, ptr %4, i32 0, i32 1
  store ptr %45, ptr %46, align 8, !tbaa !221
  %47 = getelementptr inbounds nuw %struct.qlog_trace_info_st, ptr %4, i32 0, i32 2
  store ptr null, ptr %47, align 8, !tbaa !223
  %48 = getelementptr inbounds nuw %struct.qlog_trace_info_st, ptr %4, i32 0, i32 3
  store ptr null, ptr %48, align 8, !tbaa !224
  %49 = load ptr, ptr %3, align 8, !tbaa !3
  %50 = getelementptr inbounds nuw %struct.quic_channel_st, ptr %49, i32 0, i32 72
  %51 = load i64, ptr %50, align 8
  %52 = lshr i64 %51, 25
  %53 = and i64 %52, 1
  %54 = trunc i64 %53 to i32
  %55 = getelementptr inbounds nuw %struct.qlog_trace_info_st, ptr %4, i32 0, i32 4
  store i32 %54, ptr %55, align 8, !tbaa !225
  %56 = getelementptr inbounds nuw %struct.qlog_trace_info_st, ptr %4, i32 0, i32 5
  store ptr @get_time, ptr %56, align 8, !tbaa !226
  %57 = load ptr, ptr %3, align 8, !tbaa !3
  %58 = getelementptr inbounds nuw %struct.qlog_trace_info_st, ptr %4, i32 0, i32 6
  store ptr %57, ptr %58, align 8, !tbaa !227
  %59 = call ptr @ossl_qlog_new_from_env(ptr noundef %4)
  %60 = load ptr, ptr %3, align 8, !tbaa !3
  %61 = getelementptr inbounds nuw %struct.quic_channel_st, ptr %60, i32 0, i32 7
  store ptr %59, ptr %61, align 8, !tbaa !171
  %62 = icmp eq ptr %59, null
  br i1 %62, label %63, label %69

63:                                               ; preds = %39
  %64 = load ptr, ptr %3, align 8, !tbaa !3
  %65 = getelementptr inbounds nuw %struct.quic_channel_st, ptr %64, i32 0, i32 72
  %66 = load i64, ptr %65, align 8
  %67 = and i64 %66, -2199023255553
  %68 = or i64 %67, 0
  store i64 %68, ptr %65, align 8
  store ptr null, ptr %2, align 8
  store i32 1, ptr %5, align 4
  br label %73

69:                                               ; preds = %39
  %70 = load ptr, ptr %3, align 8, !tbaa !3
  %71 = getelementptr inbounds nuw %struct.quic_channel_st, ptr %70, i32 0, i32 7
  %72 = load ptr, ptr %71, align 8, !tbaa !171
  store ptr %72, ptr %2, align 8
  store i32 1, ptr %5, align 4
  br label %73

73:                                               ; preds = %69, %63, %38, %22, %10
  call void @llvm.lifetime.end.p0(i64 88, ptr %4) #9
  %74 = load ptr, ptr %2, align 8
  ret ptr %74
}