; Function Attrs: nounwind uwtable
define internal fastcc ptr @ch_get_qlog(ptr noundef %0) unnamed_addr #0 {
  %2 = alloca %struct.qlog_trace_info_st, align 8
  call void @llvm.lifetime.start.p0(i64 88, ptr nonnull %2) #15
  %3 = getelementptr inbounds nuw i8, ptr %2, i64 16
  call void @llvm.memset.p0.i64(ptr noundef nonnull align 8 dereferenceable(88) %3, i8 0, i64 72, i1 false)
  %4 = getelementptr inbounds nuw i8, ptr %0, i64 72
  %5 = load ptr, ptr %4, align 8, !tbaa !171
  %.not = icmp eq ptr %5, null
  br i1 %.not, label %6, label %33

6:                                                ; preds = %1
  %7 = getelementptr inbounds nuw i8, ptr %0, i64 1568
  %8 = load i64, ptr %7, align 8
  %9 = and i64 %8, 2199023255552
  %.not15 = icmp eq i64 %9, 0
  br i1 %.not15, label %33, label %10

10:                                               ; preds = %6
  %11 = and i64 %8, 33554432
  %.not16 = icmp eq i64 %11, 0
  br i1 %.not16, label %16, label %12

12:                                               ; preds = %10
  %13 = getelementptr inbounds nuw i8, ptr %0, i64 1144
  %14 = load i8, ptr %13, align 8, !tbaa !179
  %15 = icmp eq i8 %14, 0
  br i1 %15, label %33, label %16

16:                                               ; preds = %12, %10
  %17 = getelementptr inbounds nuw i8, ptr %0, i64 1144
  call void @llvm.memcpy.p0.p0.i64(ptr noundef nonnull align 8 dereferenceable(21) %2, ptr noundef nonnull align 8 dereferenceable(21) %17, i64 21, i1 false), !tbaa.struct !85
  %18 = getelementptr inbounds nuw i8, ptr %0, i64 1600
  %19 = load ptr, ptr %18, align 8, !tbaa !161
  %20 = getelementptr inbounds nuw i8, ptr %2, i64 24
  store ptr %19, ptr %20, align 8, !tbaa !180
  %21 = getelementptr inbounds nuw i8, ptr %2, i64 32
  %22 = trunc i64 %8 to i32
  %23 = lshr i32 %22, 25
  %24 = and i32 %23, 1
  %25 = getelementptr inbounds nuw i8, ptr %2, i64 48
  call void @llvm.memset.p0.i64(ptr noundef nonnull align 8 dereferenceable(16) %21, i8 0, i64 16, i1 false)
  store i32 %24, ptr %25, align 8, !tbaa !182
  %26 = getelementptr inbounds nuw i8, ptr %2, i64 56
  store ptr @get_time, ptr %26, align 8, !tbaa !183
  %27 = getelementptr inbounds nuw i8, ptr %2, i64 64
  store ptr %0, ptr %27, align 8, !tbaa !184
  %28 = call ptr @ossl_qlog_new_from_env(ptr noundef nonnull %2) #15
  store ptr %28, ptr %4, align 8, !tbaa !171
  %29 = icmp eq ptr %28, null
  br i1 %29, label %30, label %33

30:                                               ; preds = %16
  %31 = load i64, ptr %7, align 8
  %32 = and i64 %31, -2199023255553
  store i64 %32, ptr %7, align 8
  br label %33

33:                                               ; preds = %16, %12, %6, %1, %30
  %.0 = phi ptr [ null, %30 ], [ %5, %1 ], [ null, %6 ], [ null, %12 ], [ %28, %16 ]
  call void @llvm.lifetime.end.p0(i64 88, ptr nonnull %2) #15
  ret ptr %.0
}